; Function Attrs: null_pointer_is_valid sspstrong uwtable
define internal fastcc void @proto_mpeg_descriptor_dissect_registration(ptr noundef %0, i32 noundef %1, i32 noundef range(i32 1, 256) %2, ptr noundef %3) unnamed_addr #1 {
  %5 = load i32, ptr @hf_mpeg_descr_reg_form_id, align 4
  %6 = tail call ptr @proto_tree_add_item(ptr noundef %3, i32 noundef %5, ptr noundef %0, i32 noundef %1, i32 noundef 4, i32 noundef 0)
  %7 = icmp samesign ugt i32 %2, 4
  br i1 %7, label %.lr.ph.preheader, label %._crit_edge

.lr.ph.preheader:                                 ; preds = %4
  %8 = add i32 %1, 4
  br label %.lr.ph

.lr.ph:                                           ; preds = %.lr.ph.preheader, %.lr.ph
  %.011 = phi i32 [ %11, %.lr.ph ], [ %8, %.lr.ph.preheader ]
  %9 = load i32, ptr @hf_mpeg_descr_reg_add_id_inf, align 4
  %10 = tail call ptr @proto_tree_add_item(ptr noundef %3, i32 noundef %9, ptr noundef %0, i32 noundef %.011, i32 noundef 1, i32 noundef 0)
  %11 = add i32 %.011, 1
  %12 = sub i32 %11, %1
  %13 = icmp ult i32 %12, %2
  br i1 %13, label %.lr.ph, label %._crit_edge, !llvm.loop !6

._crit_edge:                                      ; preds = %.lr.ph, %4
  ret void
}